target datalayout = "e-m:e-p270:32:32-p271:32:32-p272:64:64-i64:64-i128:128-f80:128-n8:16:32:64-S128"
target triple = "x86_64-pc-linux-gnu"

%"class.std::vector" = type { %"struct.std::_Vector_base" }
%"struct.std::_Vector_base" = type { %"struct.std::_Vector_base<int, std::allocator<int>>::_Vector_impl" }
%"struct.std::_Vector_base<int, std::allocator<int>>::_Vector_impl" = type { %"struct.std::_Vector_base<int, std::allocator<int>>::_Vector_impl_data" }
%"struct.std::_Vector_base<int, std::allocator<int>>::_Vector_impl_data" = type { ptr, ptr, ptr }
%"class.std::initializer_list" = type { ptr, i64 }
%"class.Yosys::hashlib::pool.205" = type <{ %"class.std::vector", %"class.std::vector.206", %"struct.Yosys::hashlib::hash_ops.211", [7 x i8] }>
%"class.std::vector.206" = type { %"struct.std::_Vector_base.207" }
%"struct.std::_Vector_base.207" = type { %"struct.std::_Vector_base<Yosys::hashlib::pool<int>::entry_t, std::allocator<Yosys::hashlib::pool<int>::entry_t>>::_Vector_impl" }
%"struct.std::_Vector_base<Yosys::hashlib::pool<int>::entry_t, std::allocator<Yosys::hashlib::pool<int>::entry_t>>::_Vector_impl" = type { %"struct.std::_Vector_base<Yosys::hashlib::pool<int>::entry_t, std::allocator<Yosys::hashlib::pool<int>::entry_t>>::_Vector_impl_data" }
%"struct.std::_Vector_base<Yosys::hashlib::pool<int>::entry_t, std::allocator<Yosys::hashlib::pool<int>::entry_t>>::_Vector_impl_data" = type { ptr, ptr, ptr }
%"struct.Yosys::hashlib::hash_ops.211" = type { i8 }

; Function Attrs: mustprogress nounwind uwtable
define internal noundef i32 @_ZN12_GLOBAL__N_115DffLegalizePass13flip_initmaskEi(ptr noundef nonnull align 8 dereferenceable(2536) %0, i32 noundef %1) #5 align 2 {
  %3 = alloca ptr, align 8
  %4 = alloca i32, align 4
  %5 = alloca i32, align 4
  store ptr %0, ptr %3, align 8
  store i32 %1, ptr %4, align 4
  %6 = load i32, ptr %4, align 4
  %7 = and i32 %6, 1
  store i32 %7, ptr %5, align 4
  %8 = load i32, ptr %4, align 4
  %9 = and i32 %8, 2
  %10 = icmp ne i32 %9, 0
  br i1 %10, label %11, label %14

11:                                               ; preds = %2
  %12 = load i32, ptr %5, align 4
  %13 = or i32 %12, 4
  store i32 %13, ptr %5, align 4
  br label %14

14:                                               ; preds = %11, %2
  %15 = load i32, ptr %4, align 4
  %16 = and i32 %15, 4
  %17 = icmp ne i32 %16, 0
  br i1 %17, label %18, label %21

18:                                               ; preds = %14
  %19 = load i32, ptr %5, align 4
  %20 = or i32 %19, 2
  store i32 %20, ptr %5, align 4
  br label %21

21:                                               ; preds = %18, %14
  %22 = load i32, ptr %4, align 4
  %23 = and i32 %22, 16
  %24 = icmp ne i32 %23, 0
  br i1 %24, label %25, label %28

25:                                               ; preds = %21
  %26 = load i32, ptr %5, align 4
  %27 = or i32 %26, 256
  store i32 %27, ptr %5, align 4
  br label %28

28:                                               ; preds = %25, %21
  %29 = load i32, ptr %4, align 4
  %30 = and i32 %29, 32
  %31 = icmp ne i32 %30, 0
  br i1 %31, label %32, label %35

32:                                               ; preds = %28
  %33 = load i32, ptr %5, align 4
  %34 = or i32 %33, 1024
  store i32 %34, ptr %5, align 4
  br label %35

35:                                               ; preds = %32, %28
  %36 = load i32, ptr %4, align 4
  %37 = and i32 %36, 64
  %38 = icmp ne i32 %37, 0
  br i1 %38, label %39, label %42

39:                                               ; preds = %35
  %40 = load i32, ptr %5, align 4
  %41 = or i32 %40, 512
  store i32 %41, ptr %5, align 4
  br label %42

42:                                               ; preds = %39, %35
  %43 = load i32, ptr %4, align 4
  %44 = and i32 %43, 256
  %45 = icmp ne i32 %44, 0
  br i1 %45, label %46, label %49

46:                                               ; preds = %42
  %47 = load i32, ptr %5, align 4
  %48 = or i32 %47, 16
  store i32 %48, ptr %5, align 4
  br label %49

49:                                               ; preds = %46, %42
  %50 = load i32, ptr %4, align 4
  %51 = and i32 %50, 512
  %52 = icmp ne i32 %51, 0
  br i1 %52, label %53, label %56

53:                                               ; preds = %49
  %54 = load i32, ptr %5, align 4
  %55 = or i32 %54, 64
  store i32 %55, ptr %5, align 4
  br label %56

56:                                               ; preds = %53, %49
  %57 = load i32, ptr %4, align 4
  %58 = and i32 %57, 1024
  %59 = icmp ne i32 %58, 0
  br i1 %59, label %60, label %63

60:                                               ; preds = %56
  %61 = load i32, ptr %5, align 4
  %62 = or i32 %61, 32
  store i32 %62, ptr %5, align 4
  br label %63

63:                                               ; preds = %60, %56
  %64 = load i32, ptr %5, align 4
  ret i32 %64
}

; Function Attrs: mustprogress uwtable
define internal noundef zeroext i1 @_ZN12_GLOBAL__N_115DffLegalizePass8try_flipERN5Yosys6FfDataEi(ptr noundef nonnull align 8 dereferenceable(2536) %0, ptr noundef nonnull align 8 dereferenceable(856) %1, i32 noundef %2) #4 align 2 personality ptr @__gxx_personality_v0 {
  %4 = alloca i1, align 1
  %5 = alloca ptr, align 8
  %6 = alloca ptr, align 8
  %7 = alloca i32, align 4
  %8 = alloca i32, align 4
  %9 = alloca %"class.Yosys::hashlib::pool.205", align 8
  %10 = alloca %"class.std::initializer_list", align 8
  %11 = alloca [1 x i32], align 4
  %12 = alloca ptr, align 8
  %13 = alloca i32, align 4
  store ptr %0, ptr %5, align 8
  store ptr %1, ptr %6, align 8
  store i32 %2, ptr %7, align 4
  %14 = load ptr, ptr %5, align 8
  %15 = load ptr, ptr %6, align 8
  %16 = call noundef i32 @_ZN12_GLOBAL__N_115DffLegalizePass12get_initmaskERN5Yosys6FfDataE(ptr noundef nonnull align 8 dereferenceable(2536) %14, ptr noundef nonnull align 8 dereferenceable(856) %15)
  store i32 %16, ptr %8, align 4
  %17 = load i32, ptr %7, align 4
  %18 = load i32, ptr %8, align 4
  %19 = and i32 %17, %18
  %20 = icmp ne i32 %19, 0
  br i1 %20, label %21, label %22

21:                                               ; preds = %3
  store i1 true, ptr %4, align 1
  br label %40

22:                                               ; preds = %3
  %23 = load i32, ptr %7, align 4
  %24 = load i32, ptr %8, align 4
  %25 = call noundef i32 @_ZN12_GLOBAL__N_115DffLegalizePass13flip_initmaskEi(ptr noundef nonnull align 8 dereferenceable(2536) %14, i32 noundef %24)
  %26 = and i32 %23, %25
  %27 = icmp ne i32 %26, 0
  br i1 %27, label %28, label %39

28:                                               ; preds = %22
  %29 = load ptr, ptr %6, align 8
  %30 = getelementptr inbounds [1 x i32], ptr %11, i64 0, i64 0
  store i32 0, ptr %30, align 4
  %31 = getelementptr inbounds %"class.std::initializer_list", ptr %10, i32 0, i32 0
  %32 = getelementptr inbounds [1 x i32], ptr %11, i64 0, i64 0
  store ptr %32, ptr %31, align 8
  %33 = getelementptr inbounds %"class.std::initializer_list", ptr %10, i32 0, i32 1
  store i64 1, ptr %33, align 8
  call void @_ZN5Yosys7hashlib4poolIiNS0_8hash_opsIiEEEC2ERKSt16initializer_listIiE(ptr noundef nonnull align 8 dereferenceable(49) %9, ptr noundef nonnull align 8 dereferenceable(16) %10)
  invoke void @_ZN5Yosys6FfData9flip_bitsERKNS_7hashlib4poolIiNS1_8hash_opsIiEEEE(ptr noundef nonnull align 8 dereferenceable(856) %29, ptr noundef nonnull align 8 dereferenceable(49) %9)
          to label %34 unwind label %35

34:                                               ; preds = %28
  call void @_ZN5Yosys7hashlib4poolIiNS0_8hash_opsIiEEED2Ev(ptr noundef nonnull align 8 dereferenceable(49) %9) #3
  store i1 true, ptr %4, align 1
  br label %40

35:                                               ; preds = %28
  %36 = landingpad { ptr, i32 }
          cleanup
  %37 = extractvalue { ptr, i32 } %36, 0
  store ptr %37, ptr %12, align 8
  %38 = extractvalue { ptr, i32 } %36, 1
  store i32 %38, ptr %13, align 4
  call void @_ZN5Yosys7hashlib4poolIiNS0_8hash_opsIiEEED2Ev(ptr noundef nonnull align 8 dereferenceable(49) %9) #3
  br label %42

39:                                               ; preds = %22
  store i1 false, ptr %4, align 1
  br label %40

40:                                               ; preds = %39, %34, %21
  %41 = load i1, ptr %4, align 1
  ret i1 %41

42:                                               ; preds = %35
  %43 = load ptr, ptr %12, align 8
  %44 = load i32, ptr %13, align 4
  %45 = insertvalue { ptr, i32 } poison, ptr %43, 0
  %46 = insertvalue { ptr, i32 } %45, i32 %44, 1
  resume { ptr, i32 } %46
}