; Function Attrs: mustprogress uwtable
define internal fastcc noundef zeroext i1 @_ZN12_GLOBAL__N_115DffLegalizePass8try_flipERN5Yosys6FfDataEi(ptr noundef nonnull align 8 dereferenceable(856) %0, i32 noundef %1) unnamed_addr #4 align 2 personality ptr @__gxx_personality_v0 {
  %3 = alloca %"class.Yosys::hashlib::pool.205", align 8
  %4 = alloca %"class.std::initializer_list", align 8
  %5 = alloca [1 x i32], align 4
  %6 = tail call fastcc noundef i32 @_ZN12_GLOBAL__N_115DffLegalizePass12get_initmaskERN5Yosys6FfDataE(ptr noundef nonnull align 8 dereferenceable(856) %0)
  %7 = and i32 %6, %1
  %.not = icmp eq i32 %7, 0
  br i1 %.not, label %8, label %_ZN5Yosys7hashlib4poolIiNS0_8hash_opsIiEEED2Ev.exit

8:                                                ; preds = %2
  %9 = and i32 %6, 1
  %10 = shl i32 %6, 1
  %11 = and i32 %10, 4
  %spec.select.i = or disjoint i32 %11, %9
  %12 = lshr i32 %6, 1
  %13 = and i32 %12, 2
  %.1.i = or disjoint i32 %spec.select.i, %13
  %14 = shl i32 %6, 4
  %15 = and i32 %14, 256
  %.2.i = or disjoint i32 %.1.i, %15
  %16 = shl i32 %6, 5
  %17 = and i32 %16, 1024
  %.3.i = or disjoint i32 %.2.i, %17
  %18 = shl i32 %6, 3
  %19 = and i32 %18, 512
  %.4.i = or disjoint i32 %.3.i, %19
  %20 = lshr i32 %6, 4
  %21 = and i32 %20, 16
  %.5.i = or i32 %.4.i, %21
  %22 = lshr i32 %6, 3
  %23 = and i32 %22, 64
  %.6.i = or i32 %.5.i, %23
  %24 = lshr i32 %6, 5
  %25 = and i32 %24, 32
  %.7.i = or i32 %.6.i, %25
  %26 = and i32 %.7.i, %1
  %.not9 = icmp eq i32 %26, 0
  br i1 %.not9, label %_ZN5Yosys7hashlib4poolIiNS0_8hash_opsIiEEED2Ev.exit, label %27

27:                                               ; preds = %8
  store i32 0, ptr %5, align 4
  store ptr %5, ptr %4, align 8
  %28 = getelementptr inbounds i8, ptr %4, i64 8
  store i64 1, ptr %28, align 8
  call void @_ZN5Yosys7hashlib4poolIiNS0_8hash_opsIiEEEC2ERKSt16initializer_listIiE(ptr noundef nonnull align 8 dereferenceable(49) %3, ptr noundef nonnull align 8 dereferenceable(16) %4)
  invoke void @_ZN5Yosys6FfData9flip_bitsERKNS_7hashlib4poolIiNS1_8hash_opsIiEEEE(ptr noundef nonnull align 8 dereferenceable(856) %0, ptr noundef nonnull align 8 dereferenceable(49) %3)
          to label %29 unwind label %35

29:                                               ; preds = %27
  %30 = getelementptr inbounds i8, ptr %3, i64 24
  %31 = load ptr, ptr %30, align 8
  %.not.i.i.i.i = icmp eq ptr %31, null
  br i1 %.not.i.i.i.i, label %_ZNSt6vectorIN5Yosys7hashlib4poolIiNS1_8hash_opsIiEEE7entry_tESaIS6_EED2Ev.exit.i, label %32

32:                                               ; preds = %29
  call void @_ZdlPv(ptr noundef nonnull %31) #18
  br label %_ZNSt6vectorIN5Yosys7hashlib4poolIiNS1_8hash_opsIiEEE7entry_tESaIS6_EED2Ev.exit.i

_ZNSt6vectorIN5Yosys7hashlib4poolIiNS1_8hash_opsIiEEE7entry_tESaIS6_EED2Ev.exit.i: ; preds = %32, %29
  %33 = load ptr, ptr %3, align 8
  %.not.i.i.i1.i = icmp eq ptr %33, null
  br i1 %.not.i.i.i1.i, label %_ZN5Yosys7hashlib4poolIiNS0_8hash_opsIiEEED2Ev.exit, label %34

34:                                               ; preds = %_ZNSt6vectorIN5Yosys7hashlib4poolIiNS1_8hash_opsIiEEE7entry_tESaIS6_EED2Ev.exit.i
  call void @_ZdlPv(ptr noundef nonnull %33) #18
  br label %_ZN5Yosys7hashlib4poolIiNS0_8hash_opsIiEEED2Ev.exit

35:                                               ; preds = %27
  %36 = landingpad { ptr, i32 }
          cleanup
  call void @_ZN5Yosys7hashlib4poolIiNS0_8hash_opsIiEEED2Ev(ptr noundef nonnull align 8 dereferenceable(49) %3) #19
  resume { ptr, i32 } %36

_ZN5Yosys7hashlib4poolIiNS0_8hash_opsIiEEED2Ev.exit: ; preds = %34, %_ZNSt6vectorIN5Yosys7hashlib4poolIiNS1_8hash_opsIiEEE7entry_tESaIS6_EED2Ev.exit.i, %8, %2
  %.0 = phi i1 [ true, %2 ], [ false, %8 ], [ true, %_ZNSt6vectorIN5Yosys7hashlib4poolIiNS1_8hash_opsIiEEE7entry_tESaIS6_EED2Ev.exit.i ], [ true, %34 ]
  ret i1 %.0
}